target datalayout = "e-m:e-p270:32:32-p271:32:32-p272:64:64-i64:64-i128:128-f80:128-n8:16:32:64-S128"
target triple = "x86_64-unknown-linux-gnu"

%"class.subpaving::context" = type { ptr }
%class.svector.1 = type { %class.vector.2 }
%class.vector.2 = type { ptr }
%class.id_gen = type { i32, %class.svector.10 }
%class.svector.10 = type { %class.vector.11 }
%class.vector.11 = type { ptr }
%"struct.subpaving::display_var_proc" = type { ptr }
%class.svector.16 = type { %class.vector.17 }
%class.vector.17 = type { ptr }
%"class.subpaving::context_hwf_wrapper" = type { %"class.subpaving::context_wrapper.45", ptr, %class.hwf, %class.svector.52 }
%"class.subpaving::context_wrapper.45" = type { %"class.subpaving::context", %"class.subpaving::context_hwf" }
%"class.subpaving::context_hwf" = type { %"class.subpaving::context_t.46" }
%"class.subpaving::context_t.46" = type { ptr, %"struct.subpaving::config_hwf", i8, i8, ptr, %class.parray_manager.47, %class.interval_manager.50, %class._scoped_numeral_vector.51, %class.svector.1, %class.ptr_vector.54, %class.vector.56, %class.ptr_vector.57, %class.ptr_vector.59, %class.ptr_vector.59, %class.id_gen, i64, ptr, ptr, ptr, i32, %class.ptr_vector.61, i32, %"struct.subpaving::display_var_proc", ptr, %class.scoped_ptr.63, %class.scoped_ptr.64, %class.scoped_ptr.65, %class.svector.16, %class.hwf, i8, %class.hwf, %class.hwf, %class.hwf, i32, i32, i64, i32, i32, i32, i32, i32, %class.hwf, %class.hwf, %class.hwf, %"struct.subpaving::context_t<subpaving::config_hwf>::interval", %"struct.subpaving::context_t<subpaving::config_hwf>::interval", %"struct.subpaving::context_t<subpaving::config_hwf>::interval" }
%"struct.subpaving::config_hwf" = type { ptr }
%class.parray_manager.47 = type { ptr, ptr, %class.ptr_vector.48, %class.ptr_vector.48 }
%class.ptr_vector.48 = type { %class.vector.49 }
%class.vector.49 = type { ptr }
%class.interval_manager.50 = type { ptr, %"class.subpaving::context_t<subpaving::config_hwf>::interval_config", %class.hwf, %class.hwf, %class.hwf, %class.hwf, %class.hwf, %class.hwf, %class.hwf, %class.hwf, %class.hwf, i32, [4 x i8], %"struct.subpaving::context_t<subpaving::config_hwf>::interval", %"struct.subpaving::context_t<subpaving::config_hwf>::interval", %"struct.subpaving::context_t<subpaving::config_hwf>::interval", %"struct.subpaving::context_t<subpaving::config_hwf>::interval" }
%"class.subpaving::context_t<subpaving::config_hwf>::interval_config" = type { ptr }
%class._scoped_numeral_vector.51 = type { %class.svector.52, ptr }
%class.ptr_vector.54 = type { %class.vector.55 }
%class.vector.55 = type { ptr }
%class.vector.56 = type { ptr }
%class.ptr_vector.57 = type { %class.vector.58 }
%class.vector.58 = type { ptr }
%class.ptr_vector.59 = type { %class.vector.60 }
%class.vector.60 = type { ptr }
%class.ptr_vector.61 = type { %class.vector.62 }
%class.vector.62 = type { ptr }
%class.scoped_ptr.63 = type { ptr }
%class.scoped_ptr.64 = type { ptr }
%class.scoped_ptr.65 = type { ptr }
%"struct.subpaving::context_t<subpaving::config_hwf>::interval" = type <{ i8, [7 x i8], ptr, i32, [4 x i8], %class.hwf, i8, i8, [6 x i8], %class.hwf, i8, i8, [6 x i8] }>
%class.hwf = type { double }
%class.svector.52 = type { %class.vector.53 }
%class.vector.53 = type { ptr }

; Function Attrs: mustprogress nounwind uwtable
define linkonce_odr hidden void @_ZN9subpaving10config_hwfC2ER3f2nI11hwf_managerE(ptr noundef nonnull align 8 dereferenceable(8) %this, ptr noundef nonnull align 8 dereferenceable(40) %m) unnamed_addr #5 comdat align 2 {
entry:
  %this.addr = alloca ptr, align 8
  %m.addr = alloca ptr, align 8
  store ptr %this, ptr %this.addr, align 8
  store ptr %m, ptr %m.addr, align 8
  %this1 = load ptr, ptr %this.addr, align 8
  %m_manager = getelementptr inbounds %"struct.subpaving::config_hwf", ptr %this1, i32 0, i32 0
  %0 = load ptr, ptr %m.addr, align 8
  store ptr %0, ptr %m_manager, align 8
  ret void
}

; Function Attrs: mustprogress nounwind uwtable
define linkonce_odr hidden void @_ZN9subpaving11context_hwfD2Ev(ptr noundef nonnull align 8 dereferenceable(840) %this) unnamed_addr #5 comdat align 2 {
entry:
  %this.addr = alloca ptr, align 8
  store ptr %this, ptr %this.addr, align 8
  %this1 = load ptr, ptr %this.addr, align 8
  call void @_ZN9subpaving9context_tINS_10config_hwfEED2Ev(ptr noundef nonnull align 8 dereferenceable(840) %this1) #3
  ret void
}

; Function Attrs: mustprogress nounwind uwtable
define linkonce_odr hidden void @_ZN6vectorI3hwfLb0EjEC2Ev(ptr noundef nonnull align 8 dereferenceable(8) %this) unnamed_addr #5 comdat align 2 {
entry:
  %this.addr = alloca ptr, align 8
  store ptr %this, ptr %this.addr, align 8
  %this1 = load ptr, ptr %this.addr, align 8
  %m_data = getelementptr inbounds %class.vector.53, ptr %this1, i32 0, i32 0
  store ptr null, ptr %m_data, align 8
  ret void
}

; Function Attrs: mustprogress nounwind uwtable
define linkonce_odr hidden void @_ZN9subpaving7contextD2Ev(ptr noundef nonnull align 8 dereferenceable(8) %this) unnamed_addr #5 comdat align 2 {
entry:
  %this.addr = alloca ptr, align 8
  store ptr %this, ptr %this.addr, align 8
  ret void
}

; Function Attrs: mustprogress uwtable
define linkonce_odr hidden void @_ZN9subpaving11context_hwfC2ER8reslimitR3f2nI11hwf_managerERK10params_refP22small_object_allocator(ptr noundef nonnull align 8 dereferenceable(840) %this, ptr noundef nonnull align 8 dereferenceable(40) %lim, ptr noundef nonnull align 8 dereferenceable(40) %m, ptr noundef nonnull align 8 dereferenceable(8) %p, ptr noundef %a) unnamed_addr #4 comdat align 2 {
entry:
  %this.addr = alloca ptr, align 8
  %lim.addr = alloca ptr, align 8
  %m.addr = alloca ptr, align 8
  %p.addr = alloca ptr, align 8
  %a.addr = alloca ptr, align 8
  %ref.tmp = alloca %"struct.subpaving::config_hwf", align 8
  store ptr %this, ptr %this.addr, align 8
  store ptr %lim, ptr %lim.addr, align 8
  store ptr %m, ptr %m.addr, align 8
  store ptr %p, ptr %p.addr, align 8
  store ptr %a, ptr %a.addr, align 8
  %this1 = load ptr, ptr %this.addr, align 8
  %0 = load ptr, ptr %lim.addr, align 8
  %1 = load ptr, ptr %m.addr, align 8
  call void @_ZN9subpaving10config_hwfC2ER3f2nI11hwf_managerE(ptr noundef nonnull align 8 dereferenceable(8) %ref.tmp, ptr noundef nonnull align 8 dereferenceable(40) %1)
  %2 = load ptr, ptr %p.addr, align 8
  %3 = load ptr, ptr %a.addr, align 8
  call void @_ZN9subpaving9context_tINS_10config_hwfEEC2ER8reslimitRKS1_RK10params_refP22small_object_allocator(ptr noundef nonnull align 8 dereferenceable(840) %this1, ptr noundef nonnull align 8 dereferenceable(40) %0, ptr noundef nonnull align 8 dereferenceable(8) %ref.tmp, ptr noundef nonnull align 8 dereferenceable(8) %2, ptr noundef %3)
  ret void
}

; Function Attrs: mustprogress nounwind uwtable
define linkonce_odr hidden void @_ZN9subpaving7contextC2Ev(ptr noundef nonnull align 8 dereferenceable(8) %this) unnamed_addr #5 comdat align 2 {
entry:
  %this.addr = alloca ptr, align 8
  store ptr %this, ptr %this.addr, align 8
  %this1 = load ptr, ptr %this.addr, align 8
  store ptr getelementptr inbounds ({ [22 x ptr] }, ptr @_ZTVN9subpaving7contextE, i32 0, i32 0, i32 2), ptr %this1, align 8
  ret void
}

; Function Attrs: mustprogress nounwind uwtable
define linkonce_odr hidden void @_ZN9subpaving15context_wrapperINS_11context_hwfEED2Ev(ptr noundef nonnull align 8 dereferenceable(848) %this) unnamed_addr #5 comdat align 2 {
entry:
  %this.addr = alloca ptr, align 8
  store ptr %this, ptr %this.addr, align 8
  %this1 = load ptr, ptr %this.addr, align 8
  store ptr getelementptr inbounds ({ [22 x ptr] }, ptr @_ZTVN9subpaving15context_wrapperINS_11context_hwfEEE, i32 0, i32 0, i32 2), ptr %this1, align 8
  %m_ctx = getelementptr inbounds %"class.subpaving::context_wrapper.45", ptr %this1, i32 0, i32 1
  call void @_ZN9subpaving11context_hwfD2Ev(ptr noundef nonnull align 8 dereferenceable(840) %m_ctx) #3
  call void @_ZN9subpaving7contextD2Ev(ptr noundef nonnull align 8 dereferenceable(8) %this1) #3
  ret void
}

; Function Attrs: mustprogress nounwind uwtable
define linkonce_odr hidden void @_ZN7svectorI3hwfjEC2Ev(ptr noundef nonnull align 8 dereferenceable(8) %this) unnamed_addr #5 comdat align 2 {
entry:
  %this.addr = alloca ptr, align 8
  store ptr %this, ptr %this.addr, align 8
  %this1 = load ptr, ptr %this.addr, align 8
  %0 = getelementptr inbounds i8, ptr %this1, i64 0
  call void @llvm.memset.p0.i64(ptr align 8 %0, i8 0, i64 8, i1 false)
  call void @_ZN6vectorI3hwfLb0EjEC2Ev(ptr noundef nonnull align 8 dereferenceable(8) %this1) #3
  ret void
}

; Function Attrs: mustprogress uwtable
define linkonce_odr hidden void @_ZN9subpaving15context_wrapperINS_11context_hwfEEC2ER8reslimitR3f2nI11hwf_managerERK10params_refP22small_object_allocator(ptr noundef nonnull align 8 dereferenceable(848) %this, ptr noundef nonnull align 8 dereferenceable(40) %lim, ptr noundef nonnull align 8 dereferenceable(40) %m, ptr noundef nonnull align 8 dereferenceable(8) %p, ptr noundef %a) unnamed_addr #4 comdat align 2 personality ptr @__gxx_personality_v0 {
entry:
  %this.addr = alloca ptr, align 8
  %lim.addr = alloca ptr, align 8
  %m.addr = alloca ptr, align 8
  %p.addr = alloca ptr, align 8
  %a.addr = alloca ptr, align 8
  %exn.slot = alloca ptr, align 8
  %ehselector.slot = alloca i32, align 4
  store ptr %this, ptr %this.addr, align 8
  store ptr %lim, ptr %lim.addr, align 8
  store ptr %m, ptr %m.addr, align 8
  store ptr %p, ptr %p.addr, align 8
  store ptr %a, ptr %a.addr, align 8
  %this1 = load ptr, ptr %this.addr, align 8
  call void @_ZN9subpaving7contextC2Ev(ptr noundef nonnull align 8 dereferenceable(8) %this1) #3
  store ptr getelementptr inbounds ({ [22 x ptr] }, ptr @_ZTVN9subpaving15context_wrapperINS_11context_hwfEEE, i32 0, i32 0, i32 2), ptr %this1, align 8
  %m_ctx = getelementptr inbounds %"class.subpaving::context_wrapper.45", ptr %this1, i32 0, i32 1
  %0 = load ptr, ptr %lim.addr, align 8
  %1 = load ptr, ptr %m.addr, align 8
  %2 = load ptr, ptr %p.addr, align 8
  %3 = load ptr, ptr %a.addr, align 8
  invoke void @_ZN9subpaving11context_hwfC2ER8reslimitR3f2nI11hwf_managerERK10params_refP22small_object_allocator(ptr noundef nonnull align 8 dereferenceable(840) %m_ctx, ptr noundef nonnull align 8 dereferenceable(40) %0, ptr noundef nonnull align 8 dereferenceable(40) %1, ptr noundef nonnull align 8 dereferenceable(8) %2, ptr noundef %3)
          to label %invoke.cont unwind label %lpad

invoke.cont:                                      ; preds = %entry
  ret void

lpad:                                             ; preds = %entry
  %4 = landingpad { ptr, i32 }
          cleanup
  %5 = extractvalue { ptr, i32 } %4, 0
  store ptr %5, ptr %exn.slot, align 8
  %6 = extractvalue { ptr, i32 } %4, 1
  store i32 %6, ptr %ehselector.slot, align 4
  call void @_ZN9subpaving7contextD2Ev(ptr noundef nonnull align 8 dereferenceable(8) %this1) #3
  br label %eh.resume

eh.resume:                                        ; preds = %lpad
  %exn = load ptr, ptr %exn.slot, align 8
  %sel = load i32, ptr %ehselector.slot, align 4
  %lpad.val = insertvalue { ptr, i32 } poison, ptr %exn, 0
  %lpad.val2 = insertvalue { ptr, i32 } %lpad.val, i32 %sel, 1
  resume { ptr, i32 } %lpad.val2
}

; Function Attrs: mustprogress uwtable
define linkonce_odr hidden void @_ZN9subpaving19context_hwf_wrapperC2ER8reslimitR3f2nI11hwf_managerER11mpq_managerILb0EERK10params_refP22small_object_allocator(ptr noundef nonnull align 8 dereferenceable(872) %this, ptr noundef nonnull align 8 dereferenceable(40) %lim, ptr noundef nonnull align 8 dereferenceable(40) %fm, ptr noundef nonnull align 8 dereferenceable(728) %qm, ptr noundef nonnull align 8 dereferenceable(8) %p, ptr noundef %a) unnamed_addr #4 comdat align 2 personality ptr @__gxx_personality_v0 {
entry:
  %this.addr = alloca ptr, align 8
  %lim.addr = alloca ptr, align 8
  %fm.addr = alloca ptr, align 8
  %qm.addr = alloca ptr, align 8
  %p.addr = alloca ptr, align 8
  %a.addr = alloca ptr, align 8
  %exn.slot = alloca ptr, align 8
  %ehselector.slot = alloca i32, align 4
  store ptr %this, ptr %this.addr, align 8
  store ptr %lim, ptr %lim.addr, align 8
  store ptr %fm, ptr %fm.addr, align 8
  store ptr %qm, ptr %qm.addr, align 8
  store ptr %p, ptr %p.addr, align 8
  store ptr %a, ptr %a.addr, align 8
  %this1 = load ptr, ptr %this.addr, align 8
  %0 = load ptr, ptr %lim.addr, align 8
  %1 = load ptr, ptr %fm.addr, align 8
  %2 = load ptr, ptr %p.addr, align 8
  %3 = load ptr, ptr %a.addr, align 8
  call void @_ZN9subpaving15context_wrapperINS_11context_hwfEEC2ER8reslimitR3f2nI11hwf_managerERK10params_refP22small_object_allocator(ptr noundef nonnull align 8 dereferenceable(848) %this1, ptr noundef nonnull align 8 dereferenceable(40) %0, ptr noundef nonnull align 8 dereferenceable(40) %1, ptr noundef nonnull align 8 dereferenceable(8) %2, ptr noundef %3)
  store ptr getelementptr inbounds ({ [22 x ptr] }, ptr @_ZTVN9subpaving19context_hwf_wrapperE, i32 0, i32 0, i32 2), ptr %this1, align 8
  %m_qm = getelementptr inbounds %"class.subpaving::context_hwf_wrapper", ptr %this1, i32 0, i32 1
  %4 = load ptr, ptr %qm.addr, align 8
  store ptr %4, ptr %m_qm, align 8
  %m_as = getelementptr inbounds %"class.subpaving::context_hwf_wrapper", ptr %this1, i32 0, i32 3
  invoke void @_ZN7svectorI3hwfjEC2Ev(ptr noundef nonnull align 8 dereferenceable(8) %m_as)
          to label %invoke.cont unwind label %lpad

invoke.cont:                                      ; preds = %entry
  ret void

lpad:                                             ; preds = %entry
  %5 = landingpad { ptr, i32 }
          cleanup
  %6 = extractvalue { ptr, i32 } %5, 0
  store ptr %6, ptr %exn.slot, align 8
  %7 = extractvalue { ptr, i32 } %5, 1
  store i32 %7, ptr %ehselector.slot, align 4
  call void @_ZN9subpaving15context_wrapperINS_11context_hwfEED2Ev(ptr noundef nonnull align 8 dereferenceable(848) %this1) #3
  br label %eh.resume

eh.resume:                                        ; preds = %lpad
  %exn = load ptr, ptr %exn.slot, align 8
  %sel = load i32, ptr %ehselector.slot, align 4
  %lpad.val = insertvalue { ptr, i32 } poison, ptr %exn, 0
  %lpad.val2 = insertvalue { ptr, i32 } %lpad.val, i32 %sel, 1
  resume { ptr, i32 } %lpad.val2
}

; Function Attrs: mustprogress uwtable
define hidden noundef ptr @_ZN9subpaving14mk_hwf_contextER8reslimitR3f2nI11hwf_managerER11mpq_managerILb0EERK10params_refP22small_object_allocator(ptr noundef nonnull align 8 dereferenceable(40) %lim, ptr noundef nonnull align 8 dereferenceable(40) %m, ptr noundef nonnull align 8 dereferenceable(728) %qm, ptr noundef nonnull align 8 dereferenceable(8) %p, ptr noundef %a) #4 {
entry:
  %lim.addr = alloca ptr, align 8
  %m.addr = alloca ptr, align 8
  %qm.addr = alloca ptr, align 8
  %p.addr = alloca ptr, align 8
  %a.addr = alloca ptr, align 8
  store ptr %lim, ptr %lim.addr, align 8
  store ptr %m, ptr %m.addr, align 8
  store ptr %qm, ptr %qm.addr, align 8
  store ptr %p, ptr %p.addr, align 8
  store ptr %a, ptr %a.addr, align 8
  %call = call noalias noundef ptr @_ZN6memory8allocateEm(i64 noundef 872)
  %0 = load ptr, ptr %lim.addr, align 8
  %1 = load ptr, ptr %m.addr, align 8
  %2 = load ptr, ptr %qm.addr, align 8
  %3 = load ptr, ptr %p.addr, align 8
  %4 = load ptr, ptr %a.addr, align 8
  call void @_ZN9subpaving19context_hwf_wrapperC2ER8reslimitR3f2nI11hwf_managerER11mpq_managerILb0EERK10params_refP22small_object_allocator(ptr noundef nonnull align 8 dereferenceable(872) %call, ptr noundef nonnull align 8 dereferenceable(40) %0, ptr noundef nonnull align 8 dereferenceable(40) %1, ptr noundef nonnull align 8 dereferenceable(728) %2, ptr noundef nonnull align 8 dereferenceable(8) %3, ptr noundef %4)
  ret ptr %call
}