; Function Attrs: mustprogress uwtable
define hidden noundef ptr @_ZN9subpaving14mk_hwf_contextER8reslimitR3f2nI11hwf_managerER11mpq_managerILb0EERK10params_refP22small_object_allocator(ptr noundef nonnull align 8 dereferenceable(40) %lim, ptr noundef nonnull align 8 dereferenceable(40) %m, ptr noundef nonnull align 8 dereferenceable(728) %qm, ptr noundef nonnull align 8 dereferenceable(8) %p, ptr noundef %a) local_unnamed_addr #3 personality ptr @__gxx_personality_v0 {
entry:
  %ref.tmp.i.i.i = alloca %"struct.subpaving::config_hwf", align 8
  %call = tail call noalias noundef ptr @_ZN6memory8allocateEm(i64 noundef 872)
  store ptr getelementptr inbounds ({ [22 x ptr] }, ptr @_ZTVN9subpaving15context_wrapperINS_11context_hwfEEE, i64 0, i32 0, i64 2), ptr %call, align 8
  %m_ctx.i.i = getelementptr inbounds i8, ptr %call, i64 8
  call void @llvm.lifetime.start.p0(i64 8, ptr nonnull %ref.tmp.i.i.i)
  store ptr %m, ptr %ref.tmp.i.i.i, align 8
  call void @_ZN9subpaving9context_tINS_10config_hwfEEC2ER8reslimitRKS1_RK10params_refP22small_object_allocator(ptr noundef nonnull align 8 dereferenceable(840) %m_ctx.i.i, ptr noundef nonnull align 8 dereferenceable(40) %lim, ptr noundef nonnull align 8 dereferenceable(8) %ref.tmp.i.i.i, ptr noundef nonnull align 8 dereferenceable(8) %p, ptr noundef %a)
  call void @llvm.lifetime.end.p0(i64 8, ptr nonnull %ref.tmp.i.i.i)
  store ptr getelementptr inbounds ({ [22 x ptr] }, ptr @_ZTVN9subpaving19context_hwf_wrapperE, i64 0, i32 0, i64 2), ptr %call, align 8
  %m_qm.i = getelementptr inbounds i8, ptr %call, i64 848
  store ptr %qm, ptr %m_qm.i, align 8
  %m_as.i = getelementptr inbounds i8, ptr %call, i64 864
  store ptr null, ptr %m_as.i, align 8
  ret ptr %call
}